; Function Attrs: mustprogress nofree norecurse nosync nounwind memory(argmem: readwrite) uwtable
define hidden void @_ZN2cv12accSqr_8u32fEPKhPfS1_ii(ptr noundef readonly captures(none) %0, ptr noundef captures(none) %1, ptr noundef readonly %2, i32 noundef %3, i32 noundef %4) local_unnamed_addr #0 {
  %.not.i.i = icmp eq ptr %2, null
  br i1 %.not.i.i, label %6, label %15

6:                                                ; preds = %5
  %7 = mul nsw i32 %4, %3
  %8 = icmp sgt i32 %7, 0
  br i1 %8, label %.lr.ph.preheader.i.i, label %_ZN2cv12cpu_baseline12accSqr_simd_EPKhPfS2_ii.exit

.lr.ph.preheader.i.i:                             ; preds = %6
  %wide.trip.count60.i.i = zext nneg i32 %7 to i64
  br label %.lr.ph.i.i

.lr.ph.i.i:                                       ; preds = %.lr.ph.i.i, %.lr.ph.preheader.i.i
  %indvars.iv57.i.i = phi i64 [ 0, %.lr.ph.preheader.i.i ], [ %indvars.iv.next58.i.i, %.lr.ph.i.i ]
  %9 = getelementptr inbounds nuw i8, ptr %0, i64 %indvars.iv57.i.i
  %10 = load i8, ptr %9, align 1, !tbaa !3
  %11 = uitofp i8 %10 to float
  %12 = getelementptr inbounds nuw float, ptr %1, i64 %indvars.iv57.i.i
  %13 = load float, ptr %12, align 4, !tbaa !6
  %14 = tail call float @llvm.fmuladd.f32(float %11, float %11, float %13)
  store float %14, ptr %12, align 4, !tbaa !6
  %indvars.iv.next58.i.i = add nuw nsw i64 %indvars.iv57.i.i, 1
  %exitcond61.not.i.i = icmp eq i64 %indvars.iv.next58.i.i, %wide.trip.count60.i.i
  br i1 %exitcond61.not.i.i, label %_ZN2cv12cpu_baseline12accSqr_simd_EPKhPfS2_ii.exit, label %.lr.ph.i.i, !llvm.loop !34

15:                                               ; preds = %5
  %16 = icmp sgt i32 %3, 0
  br i1 %16, label %.lr.ph47.i.i, label %_ZN2cv12cpu_baseline12accSqr_simd_EPKhPfS2_ii.exit

.lr.ph47.i.i:                                     ; preds = %15
  %17 = icmp sgt i32 %4, 0
  %18 = sext i32 %4 to i64
  br i1 %17, label %.lr.ph47.split.us.preheader.i.i, label %_ZN2cv12cpu_baseline12accSqr_simd_EPKhPfS2_ii.exit

.lr.ph47.split.us.preheader.i.i:                  ; preds = %.lr.ph47.i.i
  %wide.trip.count55.i.i = zext nneg i32 %3 to i64
  %wide.trip.count.i.i = zext nneg i32 %4 to i64
  br label %.lr.ph47.split.us.i.i

.lr.ph47.split.us.i.i:                            ; preds = %..loopexit41_crit_edge.us.i.i, %.lr.ph47.split.us.preheader.i.i
  %indvars.iv52.i.i = phi i64 [ 0, %.lr.ph47.split.us.preheader.i.i ], [ %indvars.iv.next53.i.i, %..loopexit41_crit_edge.us.i.i ]
  %.03745.us.i.i = phi ptr [ %0, %.lr.ph47.split.us.preheader.i.i ], [ %27, %..loopexit41_crit_edge.us.i.i ]
  %.03844.us.i.i = phi ptr [ %1, %.lr.ph47.split.us.preheader.i.i ], [ %28, %..loopexit41_crit_edge.us.i.i ]
  %19 = getelementptr inbounds nuw i8, ptr %2, i64 %indvars.iv52.i.i
  %20 = load i8, ptr %19, align 1, !tbaa !3
  %.not40.us.i.i = icmp eq i8 %20, 0
  br i1 %.not40.us.i.i, label %..loopexit41_crit_edge.us.i.i, label %.preheader.us.i.i

.preheader.us.i.i:                                ; preds = %.lr.ph47.split.us.i.i, %.preheader.us.i.i
  %indvars.iv.i.i = phi i64 [ %indvars.iv.next.i.i, %.preheader.us.i.i ], [ 0, %.lr.ph47.split.us.i.i ]
  %21 = getelementptr inbounds nuw i8, ptr %.03745.us.i.i, i64 %indvars.iv.i.i
  %22 = load i8, ptr %21, align 1, !tbaa !3
  %23 = uitofp i8 %22 to float
  %24 = getelementptr inbounds nuw float, ptr %.03844.us.i.i, i64 %indvars.iv.i.i
  %25 = load float, ptr %24, align 4, !tbaa !6
  %26 = tail call float @llvm.fmuladd.f32(float %23, float %23, float %25)
  store float %26, ptr %24, align 4, !tbaa !6
  %indvars.iv.next.i.i = add nuw nsw i64 %indvars.iv.i.i, 1
  %exitcond.not.i.i = icmp eq i64 %indvars.iv.next.i.i, %wide.trip.count.i.i
  br i1 %exitcond.not.i.i, label %..loopexit41_crit_edge.us.i.i, label %.preheader.us.i.i, !llvm.loop !35

..loopexit41_crit_edge.us.i.i:                    ; preds = %.preheader.us.i.i, %.lr.ph47.split.us.i.i
  %indvars.iv.next53.i.i = add nuw nsw i64 %indvars.iv52.i.i, 1
  %27 = getelementptr inbounds nuw i8, ptr %.03745.us.i.i, i64 %18
  %28 = getelementptr inbounds nuw float, ptr %.03844.us.i.i, i64 %18
  %exitcond56.not.i.i = icmp eq i64 %indvars.iv.next53.i.i, %wide.trip.count55.i.i
  br i1 %exitcond56.not.i.i, label %_ZN2cv12cpu_baseline12accSqr_simd_EPKhPfS2_ii.exit, label %.lr.ph47.split.us.i.i, !llvm.loop !36

_ZN2cv12cpu_baseline12accSqr_simd_EPKhPfS2_ii.exit: ; preds = %..loopexit41_crit_edge.us.i.i, %.lr.ph.i.i, %6, %15, %.lr.ph47.i.i
  ret void
}